; Function Attrs: mustprogress nounwind uwtable
define dso_local void @_ZN4llvm17DecodeMOVHLPSMaskEjRNS_15SmallVectorImplIiEE(i32 noundef %0, ptr noundef nonnull align 8 dereferenceable(16) %1) local_unnamed_addr #0 {
  %3 = lshr i32 %0, 1
  %.not17 = icmp eq i32 %0, 0
  br i1 %.not17, label %._crit_edge, label %.lr.ph

.lr.ph:                                           ; preds = %2
  %4 = getelementptr inbounds nuw i8, ptr %1, i64 16
  br label %6

.lr.ph21:                                         ; preds = %_ZN4llvm23SmallVectorTemplateBaseIiLb1EE9push_backEi.exit
  %5 = getelementptr inbounds nuw i8, ptr %1, i64 16
  br label %18

6:                                                ; preds = %.lr.ph, %_ZN4llvm23SmallVectorTemplateBaseIiLb1EE9push_backEi.exit
  %.01218 = phi i32 [ %3, %.lr.ph ], [ %17, %_ZN4llvm23SmallVectorTemplateBaseIiLb1EE9push_backEi.exit ]
  %7 = add i32 %.01218, %0
  %8 = tail call noundef i64 @_ZNK4llvm15SmallVectorBaseIjE4sizeEv(ptr noundef nonnull align 8 dereferenceable(16) %1) #4
  %9 = add i64 %8, 1
  %10 = tail call noundef i64 @_ZNK4llvm15SmallVectorBaseIjE8capacityEv(ptr noundef nonnull align 8 dereferenceable(16) %1) #4
  %.not.i.i.i = icmp ugt i64 %9, %10
  br i1 %.not.i.i.i, label %11, label %_ZN4llvm23SmallVectorTemplateBaseIiLb1EE9push_backEi.exit

11:                                               ; preds = %6
  tail call void @_ZN4llvm15SmallVectorBaseIjE8grow_podEPvmm(ptr noundef nonnull align 8 dereferenceable(16) %1, ptr noundef nonnull %4, i64 noundef %9, i64 noundef 4) #4
  br label %_ZN4llvm23SmallVectorTemplateBaseIiLb1EE9push_backEi.exit

_ZN4llvm23SmallVectorTemplateBaseIiLb1EE9push_backEi.exit: ; preds = %6, %11
  %12 = load ptr, ptr %1, align 8
  %13 = tail call noundef i64 @_ZNK4llvm15SmallVectorBaseIjE4sizeEv(ptr noundef nonnull align 8 dereferenceable(16) %1) #4
  %14 = getelementptr inbounds i32, ptr %12, i64 %13
  store i32 %7, ptr %14, align 1
  %15 = tail call noundef i64 @_ZNK4llvm15SmallVectorBaseIjE4sizeEv(ptr noundef nonnull align 8 dereferenceable(16) %1) #4
  %16 = add i64 %15, 1
  tail call void @_ZN4llvm15SmallVectorBaseIjE8set_sizeEm(ptr noundef nonnull align 8 dereferenceable(16) %1, i64 noundef %16) #4
  %17 = add i32 %.01218, 1
  %.not = icmp eq i32 %17, %0
  br i1 %.not, label %.lr.ph21, label %6, !llvm.loop !7

18:                                               ; preds = %.lr.ph21, %_ZN4llvm23SmallVectorTemplateBaseIiLb1EE9push_backEi.exit16
  %.020 = phi i32 [ %3, %.lr.ph21 ], [ %28, %_ZN4llvm23SmallVectorTemplateBaseIiLb1EE9push_backEi.exit16 ]
  %19 = tail call noundef i64 @_ZNK4llvm15SmallVectorBaseIjE4sizeEv(ptr noundef nonnull align 8 dereferenceable(16) %1) #4
  %20 = add i64 %19, 1
  %21 = tail call noundef i64 @_ZNK4llvm15SmallVectorBaseIjE8capacityEv(ptr noundef nonnull align 8 dereferenceable(16) %1) #4
  %.not.i.i.i15 = icmp ugt i64 %20, %21
  br i1 %.not.i.i.i15, label %22, label %_ZN4llvm23SmallVectorTemplateBaseIiLb1EE9push_backEi.exit16

22:                                               ; preds = %18
  tail call void @_ZN4llvm15SmallVectorBaseIjE8grow_podEPvmm(ptr noundef nonnull align 8 dereferenceable(16) %1, ptr noundef nonnull %5, i64 noundef %20, i64 noundef 4) #4
  br label %_ZN4llvm23SmallVectorTemplateBaseIiLb1EE9push_backEi.exit16

_ZN4llvm23SmallVectorTemplateBaseIiLb1EE9push_backEi.exit16: ; preds = %18, %22
  %23 = load ptr, ptr %1, align 8
  %24 = tail call noundef i64 @_ZNK4llvm15SmallVectorBaseIjE4sizeEv(ptr noundef nonnull align 8 dereferenceable(16) %1) #4
  %25 = getelementptr inbounds i32, ptr %23, i64 %24
  store i32 %.020, ptr %25, align 1
  %26 = tail call noundef i64 @_ZNK4llvm15SmallVectorBaseIjE4sizeEv(ptr noundef nonnull align 8 dereferenceable(16) %1) #4
  %27 = add i64 %26, 1
  tail call void @_ZN4llvm15SmallVectorBaseIjE8set_sizeEm(ptr noundef nonnull align 8 dereferenceable(16) %1, i64 noundef %27) #4
  %28 = add i32 %.020, 1
  %.not14 = icmp eq i32 %28, %0
  br i1 %.not14, label %._crit_edge, label %18, !llvm.loop !8

._crit_edge:                                      ; preds = %_ZN4llvm23SmallVectorTemplateBaseIiLb1EE9push_backEi.exit16, %2
  ret void
}